target datalayout = "e-m:e-p270:32:32-p271:32:32-p272:64:64-i64:64-i128:128-f80:128-n8:16:32:64-S128"
target triple = "x86_64-pc-linux-gnu"

%struct.black_TWorker_ = type { i32, i32, i32, i32, i32, ptr, ptr, ptr, ptr, i32, i8, i64, i64, i64, i64, i16, i32, ptr, ptr, ptr, i32, %struct.FT_Outline_, i32, i32, i32, ptr, ptr, ptr, ptr, ptr, ptr }
%struct.FT_Outline_ = type { i16, i16, ptr, ptr, ptr, i32 }

; Function Attrs: nounwind uwtable
define internal void @Set_High_Precision(ptr noundef %0, i32 noundef %1) #0 {
  %3 = alloca ptr, align 8
  %4 = alloca i32, align 4
  store ptr %0, ptr %3, align 8, !tbaa !105
  store i32 %1, ptr %4, align 4, !tbaa !15
  %5 = load i32, ptr %4, align 4, !tbaa !15
  %6 = icmp ne i32 %5, 0
  br i1 %6, label %7, label %12

7:                                                ; preds = %2
  %8 = load ptr, ptr %3, align 8, !tbaa !105
  %9 = getelementptr inbounds nuw %struct.black_TWorker_, ptr %8, i32 0, i32 0
  store i32 12, ptr %9, align 8, !tbaa !115
  %10 = load ptr, ptr %3, align 8, !tbaa !105
  %11 = getelementptr inbounds nuw %struct.black_TWorker_, ptr %10, i32 0, i32 4
  store i32 256, ptr %11, align 8, !tbaa !116
  br label %17

12:                                               ; preds = %2
  %13 = load ptr, ptr %3, align 8, !tbaa !105
  %14 = getelementptr inbounds nuw %struct.black_TWorker_, ptr %13, i32 0, i32 0
  store i32 6, ptr %14, align 8, !tbaa !115
  %15 = load ptr, ptr %3, align 8, !tbaa !105
  %16 = getelementptr inbounds nuw %struct.black_TWorker_, ptr %15, i32 0, i32 4
  store i32 32, ptr %16, align 8, !tbaa !116
  br label %17

17:                                               ; preds = %12, %7
  %18 = load ptr, ptr %3, align 8, !tbaa !105
  %19 = getelementptr inbounds nuw %struct.black_TWorker_, ptr %18, i32 0, i32 0
  %20 = load i32, ptr %19, align 8, !tbaa !115
  %21 = shl i32 1, %20
  %22 = load ptr, ptr %3, align 8, !tbaa !105
  %23 = getelementptr inbounds nuw %struct.black_TWorker_, ptr %22, i32 0, i32 1
  store i32 %21, ptr %23, align 4, !tbaa !117
  %24 = load ptr, ptr %3, align 8, !tbaa !105
  %25 = getelementptr inbounds nuw %struct.black_TWorker_, ptr %24, i32 0, i32 1
  %26 = load i32, ptr %25, align 4, !tbaa !117
  %27 = ashr i32 %26, 1
  %28 = load ptr, ptr %3, align 8, !tbaa !105
  %29 = getelementptr inbounds nuw %struct.black_TWorker_, ptr %28, i32 0, i32 2
  store i32 %27, ptr %29, align 8, !tbaa !118
  %30 = load ptr, ptr %3, align 8, !tbaa !105
  %31 = getelementptr inbounds nuw %struct.black_TWorker_, ptr %30, i32 0, i32 1
  %32 = load i32, ptr %31, align 4, !tbaa !117
  %33 = ashr i32 %32, 6
  %34 = load ptr, ptr %3, align 8, !tbaa !105
  %35 = getelementptr inbounds nuw %struct.black_TWorker_, ptr %34, i32 0, i32 3
  store i32 %33, ptr %35, align 4, !tbaa !119
  ret void
}

; Function Attrs: nounwind uwtable
define internal i32 @Render_Glyph(ptr noundef %0) #0 {
  %2 = alloca i32, align 4
  %3 = alloca ptr, align 8
  %4 = alloca i32, align 4
  %5 = alloca [2048 x i64], align 16
  %6 = alloca i32, align 4
  store ptr %0, ptr %3, align 8, !tbaa !105
  call void @llvm.lifetime.start.p0(i64 4, ptr %4) #5
  call void @llvm.lifetime.start.p0(i64 16384, ptr %5) #5
  %7 = getelementptr inbounds [2048 x i64], ptr %5, i64 0, i64 0
  %8 = load ptr, ptr %3, align 8, !tbaa !105
  %9 = getelementptr inbounds nuw %struct.black_TWorker_, ptr %8, i32 0, i32 5
  store ptr %7, ptr %9, align 8, !tbaa !107
  %10 = getelementptr inbounds [2048 x i64], ptr %5, i64 1
  %11 = getelementptr inbounds [2048 x i64], ptr %10, i64 0, i64 0
  %12 = load ptr, ptr %3, align 8, !tbaa !105
  %13 = getelementptr inbounds nuw %struct.black_TWorker_, ptr %12, i32 0, i32 6
  store ptr %11, ptr %13, align 8, !tbaa !108
  %14 = load ptr, ptr %3, align 8, !tbaa !105
  %15 = load ptr, ptr %3, align 8, !tbaa !105
  %16 = getelementptr inbounds nuw %struct.black_TWorker_, ptr %15, i32 0, i32 21
  %17 = getelementptr inbounds nuw %struct.FT_Outline_, ptr %16, i32 0, i32 5
  %18 = load i32, ptr %17, align 8, !tbaa !109
  %19 = and i32 %18, 256
  call void @Set_High_Precision(ptr noundef %14, i32 noundef %19)
  %20 = load ptr, ptr %3, align 8, !tbaa !105
  %21 = getelementptr inbounds nuw %struct.black_TWorker_, ptr %20, i32 0, i32 10
  store i8 0, ptr %21, align 4, !tbaa !110
  %22 = load ptr, ptr %3, align 8, !tbaa !105
  %23 = getelementptr inbounds nuw %struct.black_TWorker_, ptr %22, i32 0, i32 21
  %24 = getelementptr inbounds nuw %struct.FT_Outline_, ptr %23, i32 0, i32 5
  %25 = load i32, ptr %24, align 8, !tbaa !109
  %26 = and i32 %25, 8
  %27 = icmp ne i32 %26, 0
  br i1 %27, label %28, label %35

28:                                               ; preds = %1
  %29 = load ptr, ptr %3, align 8, !tbaa !105
  %30 = getelementptr inbounds nuw %struct.black_TWorker_, ptr %29, i32 0, i32 10
  %31 = load i8, ptr %30, align 4, !tbaa !110
  %32 = zext i8 %31 to i32
  %33 = or i32 %32, 2
  %34 = trunc i32 %33 to i8
  store i8 %34, ptr %30, align 4, !tbaa !110
  br label %35

35:                                               ; preds = %28, %1
  %36 = load ptr, ptr %3, align 8, !tbaa !105
  %37 = getelementptr inbounds nuw %struct.black_TWorker_, ptr %36, i32 0, i32 21
  %38 = getelementptr inbounds nuw %struct.FT_Outline_, ptr %37, i32 0, i32 5
  %39 = load i32, ptr %38, align 8, !tbaa !109
  %40 = and i32 %39, 16
  %41 = icmp ne i32 %40, 0
  br i1 %41, label %42, label %49

42:                                               ; preds = %35
  %43 = load ptr, ptr %3, align 8, !tbaa !105
  %44 = getelementptr inbounds nuw %struct.black_TWorker_, ptr %43, i32 0, i32 10
  %45 = load i8, ptr %44, align 4, !tbaa !110
  %46 = zext i8 %45 to i32
  %47 = or i32 %46, 4
  %48 = trunc i32 %47 to i8
  store i8 %48, ptr %44, align 4, !tbaa !110
  br label %49

49:                                               ; preds = %42, %35
  %50 = load ptr, ptr %3, align 8, !tbaa !105
  %51 = getelementptr inbounds nuw %struct.black_TWorker_, ptr %50, i32 0, i32 21
  %52 = getelementptr inbounds nuw %struct.FT_Outline_, ptr %51, i32 0, i32 5
  %53 = load i32, ptr %52, align 8, !tbaa !109
  %54 = and i32 %53, 32
  %55 = icmp ne i32 %54, 0
  br i1 %55, label %63, label %56

56:                                               ; preds = %49
  %57 = load ptr, ptr %3, align 8, !tbaa !105
  %58 = getelementptr inbounds nuw %struct.black_TWorker_, ptr %57, i32 0, i32 10
  %59 = load i8, ptr %58, align 4, !tbaa !110
  %60 = zext i8 %59 to i32
  %61 = or i32 %60, 1
  %62 = trunc i32 %61 to i8
  store i8 %62, ptr %58, align 4, !tbaa !110
  br label %63

63:                                               ; preds = %56, %49
  br label %64

64:                                               ; preds = %63
  br label %65

65:                                               ; preds = %64
  br label %66

66:                                               ; preds = %65
  %67 = load ptr, ptr %3, align 8, !tbaa !105
  %68 = getelementptr inbounds nuw %struct.black_TWorker_, ptr %67, i32 0, i32 27
  store ptr @Vertical_Sweep_Init, ptr %68, align 8, !tbaa !111
  %69 = load ptr, ptr %3, align 8, !tbaa !105
  %70 = getelementptr inbounds nuw %struct.black_TWorker_, ptr %69, i32 0, i32 28
  store ptr @Vertical_Sweep_Span, ptr %70, align 8, !tbaa !112
  %71 = load ptr, ptr %3, align 8, !tbaa !105
  %72 = getelementptr inbounds nuw %struct.black_TWorker_, ptr %71, i32 0, i32 29
  store ptr @Vertical_Sweep_Drop, ptr %72, align 8, !tbaa !113
  %73 = load ptr, ptr %3, align 8, !tbaa !105
  %74 = getelementptr inbounds nuw %struct.black_TWorker_, ptr %73, i32 0, i32 30
  store ptr @Vertical_Sweep_Step, ptr %74, align 8, !tbaa !114
  %75 = load ptr, ptr %3, align 8, !tbaa !105
  %76 = load ptr, ptr %3, align 8, !tbaa !105
  %77 = getelementptr inbounds nuw %struct.black_TWorker_, ptr %76, i32 0, i32 22
  %78 = load i32, ptr %77, align 8, !tbaa !52
  %79 = call i32 @Render_Single_Pass(ptr noundef %75, i8 noundef signext 0, i32 noundef 0, i32 noundef %78)
  store i32 %79, ptr %4, align 4, !tbaa !15
  %80 = load i32, ptr %4, align 4, !tbaa !15
  %81 = icmp ne i32 %80, 0
  br i1 %81, label %82, label %84

82:                                               ; preds = %66
  %83 = load i32, ptr %4, align 4, !tbaa !15
  store i32 %83, ptr %2, align 4
  store i32 1, ptr %6, align 4
  br label %111

84:                                               ; preds = %66
  %85 = load ptr, ptr %3, align 8, !tbaa !105
  %86 = getelementptr inbounds nuw %struct.black_TWorker_, ptr %85, i32 0, i32 21
  %87 = getelementptr inbounds nuw %struct.FT_Outline_, ptr %86, i32 0, i32 5
  %88 = load i32, ptr %87, align 8, !tbaa !109
  %89 = and i32 %88, 512
  %90 = icmp ne i32 %89, 0
  br i1 %90, label %110, label %91

91:                                               ; preds = %84
  %92 = load ptr, ptr %3, align 8, !tbaa !105
  %93 = getelementptr inbounds nuw %struct.black_TWorker_, ptr %92, i32 0, i32 27
  store ptr @Horizontal_Sweep_Init, ptr %93, align 8, !tbaa !111
  %94 = load ptr, ptr %3, align 8, !tbaa !105
  %95 = getelementptr inbounds nuw %struct.black_TWorker_, ptr %94, i32 0, i32 28
  store ptr @Horizontal_Sweep_Span, ptr %95, align 8, !tbaa !112
  %96 = load ptr, ptr %3, align 8, !tbaa !105
  %97 = getelementptr inbounds nuw %struct.black_TWorker_, ptr %96, i32 0, i32 29
  store ptr @Horizontal_Sweep_Drop, ptr %97, align 8, !tbaa !113
  %98 = load ptr, ptr %3, align 8, !tbaa !105
  %99 = getelementptr inbounds nuw %struct.black_TWorker_, ptr %98, i32 0, i32 30
  store ptr @Horizontal_Sweep_Step, ptr %99, align 8, !tbaa !114
  %100 = load ptr, ptr %3, align 8, !tbaa !105
  %101 = load ptr, ptr %3, align 8, !tbaa !105
  %102 = getelementptr inbounds nuw %struct.black_TWorker_, ptr %101, i32 0, i32 23
  %103 = load i32, ptr %102, align 4, !tbaa !56
  %104 = call i32 @Render_Single_Pass(ptr noundef %100, i8 noundef signext 1, i32 noundef 0, i32 noundef %103)
  store i32 %104, ptr %4, align 4, !tbaa !15
  %105 = load i32, ptr %4, align 4, !tbaa !15
  %106 = icmp ne i32 %105, 0
  br i1 %106, label %107, label %109

107:                                              ; preds = %91
  %108 = load i32, ptr %4, align 4, !tbaa !15
  store i32 %108, ptr %2, align 4
  store i32 1, ptr %6, align 4
  br label %111

109:                                              ; preds = %91
  br label %110

110:                                              ; preds = %109, %84
  store i32 0, ptr %2, align 4
  store i32 1, ptr %6, align 4
  br label %111

111:                                              ; preds = %110, %107, %82
  call void @llvm.lifetime.end.p0(i64 16384, ptr %5) #5
  call void @llvm.lifetime.end.p0(i64 4, ptr %4) #5
  %112 = load i32, ptr %2, align 4
  ret i32 %112
}