; Function Attrs: nounwind uwtable
define internal fastcc i32 @Render_Glyph(ptr noundef nonnull initializes((0, 20), (24, 61), (80, 98), (100, 120), (208, 240)) %0) unnamed_addr #0 {
  %2 = alloca [2048 x i64], align 16
  call void @llvm.lifetime.start.p0(i64 16384, ptr nonnull %2) #10
  %3 = getelementptr inbounds nuw i8, ptr %0, i64 24
  store ptr %2, ptr %3, align 8, !tbaa !83
  %4 = getelementptr inbounds nuw i8, ptr %2, i64 16384
  %5 = getelementptr inbounds nuw i8, ptr %0, i64 32
  store ptr %4, ptr %5, align 8, !tbaa !84
  %6 = getelementptr inbounds nuw i8, ptr %0, i64 168
  %7 = load i32, ptr %6, align 8, !tbaa !85
  %8 = and i32 %7, 256
  %.not.i = icmp eq i32 %8, 0
  %spec.select.i = select i1 %.not.i, i32 6, i32 12
  %spec.select11.i = select i1 %.not.i, i32 32, i32 256
  store i32 %spec.select.i, ptr %0, align 8, !tbaa !86
  %9 = getelementptr inbounds nuw i8, ptr %0, i64 16
  store i32 %spec.select11.i, ptr %9, align 8, !tbaa !87
  %10 = shl nuw nsw i32 1, %spec.select.i
  %11 = getelementptr inbounds nuw i8, ptr %0, i64 4
  store i32 %10, ptr %11, align 4, !tbaa !88
  %12 = lshr exact i32 %10, 1
  %13 = getelementptr inbounds nuw i8, ptr %0, i64 8
  store i32 %12, ptr %13, align 8, !tbaa !89
  %14 = lshr i32 %10, 6
  %15 = getelementptr inbounds nuw i8, ptr %0, i64 12
  store i32 %14, ptr %15, align 4, !tbaa !90
  %16 = getelementptr inbounds nuw i8, ptr %0, i64 60
  %17 = trunc i32 %7 to i8
  %18 = lshr i8 %17, 2
  %spec.select = and i8 %18, 6
  %19 = and i32 %7, 32
  %.not31 = icmp eq i32 %19, 0
  %20 = zext i1 %.not31 to i8
  %spec.select35 = or disjoint i8 %spec.select, %20
  store i8 %spec.select35, ptr %16, align 4
  %21 = getelementptr inbounds nuw i8, ptr %0, i64 208
  store ptr @Vertical_Sweep_Init, ptr %21, align 8, !tbaa !91
  %22 = getelementptr inbounds nuw i8, ptr %0, i64 216
  store ptr @Vertical_Sweep_Span, ptr %22, align 8, !tbaa !92
  %23 = getelementptr inbounds nuw i8, ptr %0, i64 224
  store ptr @Vertical_Sweep_Drop, ptr %23, align 8, !tbaa !93
  %24 = getelementptr inbounds nuw i8, ptr %0, i64 232
  store ptr @Vertical_Sweep_Step, ptr %24, align 8, !tbaa !94
  %25 = getelementptr inbounds nuw i8, ptr %0, i64 176
  %26 = load i32, ptr %25, align 8, !tbaa !37
  %27 = call fastcc i32 @Render_Single_Pass(ptr noundef %0, i8 noundef signext 0, i32 noundef %26)
  %.not32 = icmp eq i32 %27, 0
  br i1 %.not32, label %28, label %36

28:                                               ; preds = %1
  %29 = load i32, ptr %6, align 8, !tbaa !85
  %30 = and i32 %29, 512
  %.not33 = icmp eq i32 %30, 0
  br i1 %.not33, label %31, label %35

31:                                               ; preds = %28
  store ptr @Horizontal_Sweep_Init, ptr %21, align 8, !tbaa !91
  store ptr @Horizontal_Sweep_Span, ptr %22, align 8, !tbaa !92
  store ptr @Horizontal_Sweep_Drop, ptr %23, align 8, !tbaa !93
  store ptr @Horizontal_Sweep_Step, ptr %24, align 8, !tbaa !94
  %32 = getelementptr inbounds nuw i8, ptr %0, i64 180
  %33 = load i32, ptr %32, align 4, !tbaa !41
  %34 = call fastcc i32 @Render_Single_Pass(ptr noundef %0, i8 noundef signext 1, i32 noundef %33)
  %.not34 = icmp eq i32 %34, 0
  br i1 %.not34, label %35, label %36

35:                                               ; preds = %31, %28
  br label %36

36:                                               ; preds = %31, %1, %35
  %.0 = phi i32 [ 0, %35 ], [ %27, %1 ], [ %34, %31 ]
  call void @llvm.lifetime.end.p0(i64 16384, ptr nonnull %2) #10
  ret i32 %.0
}